
bomb:     file format elf64-x86-64


Disassembly of section .init:

0000000000400b68 <_init>:
  400b68:	48 83 ec 08          	sub    $0x8,%rsp
  400b6c:	48 8b 05 85 24 20 00 	mov    0x202485(%rip),%rax        # 602ff8 <__gmon_start__>
  400b73:	48 85 c0             	test   %rax,%rax
  400b76:	74 02                	je     400b7a <_init+0x12>
  400b78:	ff d0                	callq  *%rax
  400b7a:	48 83 c4 08          	add    $0x8,%rsp
  400b7e:	c3                   	retq   

Disassembly of section .plt:

0000000000400b80 <.plt>:
  400b80:	ff 35 82 24 20 00    	pushq  0x202482(%rip)        # 603008 <_GLOBAL_OFFSET_TABLE_+0x8>
  400b86:	ff 25 84 24 20 00    	jmpq   *0x202484(%rip)        # 603010 <_GLOBAL_OFFSET_TABLE_+0x10>
  400b8c:	0f 1f 40 00          	nopl   0x0(%rax)

0000000000400b90 <getenv@plt>:
  400b90:	ff 25 82 24 20 00    	jmpq   *0x202482(%rip)        # 603018 <getenv@GLIBC_2.2.5>
  400b96:	68 00 00 00 00       	pushq  $0x0
  400b9b:	e9 e0 ff ff ff       	jmpq   400b80 <.plt>

0000000000400ba0 <__errno_location@plt>:
  400ba0:	ff 25 7a 24 20 00    	jmpq   *0x20247a(%rip)        # 603020 <__errno_location@GLIBC_2.2.5>
  400ba6:	68 01 00 00 00       	pushq  $0x1
  400bab:	e9 d0 ff ff ff       	jmpq   400b80 <.plt>

0000000000400bb0 <strcpy@plt>:
  400bb0:	ff 25 72 24 20 00    	jmpq   *0x202472(%rip)        # 603028 <strcpy@GLIBC_2.2.5>
  400bb6:	68 02 00 00 00       	pushq  $0x2
  400bbb:	e9 c0 ff ff ff       	jmpq   400b80 <.plt>

0000000000400bc0 <puts@plt>:
  400bc0:	ff 25 6a 24 20 00    	jmpq   *0x20246a(%rip)        # 603030 <puts@GLIBC_2.2.5>
  400bc6:	68 03 00 00 00       	pushq  $0x3
  400bcb:	e9 b0 ff ff ff       	jmpq   400b80 <.plt>

0000000000400bd0 <write@plt>:
  400bd0:	ff 25 62 24 20 00    	jmpq   *0x202462(%rip)        # 603038 <write@GLIBC_2.2.5>
  400bd6:	68 04 00 00 00       	pushq  $0x4
  400bdb:	e9 a0 ff ff ff       	jmpq   400b80 <.plt>

0000000000400be0 <fclose@plt>:
  400be0:	ff 25 5a 24 20 00    	jmpq   *0x20245a(%rip)        # 603040 <fclose@GLIBC_2.2.5>
  400be6:	68 05 00 00 00       	pushq  $0x5
  400beb:	e9 90 ff ff ff       	jmpq   400b80 <.plt>

0000000000400bf0 <system@plt>:
  400bf0:	ff 25 52 24 20 00    	jmpq   *0x202452(%rip)        # 603048 <system@GLIBC_2.2.5>
  400bf6:	68 06 00 00 00       	pushq  $0x6
  400bfb:	e9 80 ff ff ff       	jmpq   400b80 <.plt>

0000000000400c00 <printf@plt>:
  400c00:	ff 25 4a 24 20 00    	jmpq   *0x20244a(%rip)        # 603050 <printf@GLIBC_2.2.5>
  400c06:	68 07 00 00 00       	pushq  $0x7
  400c0b:	e9 70 ff ff ff       	jmpq   400b80 <.plt>

0000000000400c10 <rewind@plt>:
  400c10:	ff 25 42 24 20 00    	jmpq   *0x202442(%rip)        # 603058 <rewind@GLIBC_2.2.5>
  400c16:	68 08 00 00 00       	pushq  $0x8
  400c1b:	e9 60 ff ff ff       	jmpq   400b80 <.plt>

0000000000400c20 <dup@plt>:
  400c20:	ff 25 3a 24 20 00    	jmpq   *0x20243a(%rip)        # 603060 <dup@GLIBC_2.2.5>
  400c26:	68 09 00 00 00       	pushq  $0x9
  400c2b:	e9 50 ff ff ff       	jmpq   400b80 <.plt>

0000000000400c30 <close@plt>:
  400c30:	ff 25 32 24 20 00    	jmpq   *0x202432(%rip)        # 603068 <close@GLIBC_2.2.5>
  400c36:	68 0a 00 00 00       	pushq  $0xa
  400c3b:	e9 40 ff ff ff       	jmpq   400b80 <.plt>

0000000000400c40 <fputc@plt>:
  400c40:	ff 25 2a 24 20 00    	jmpq   *0x20242a(%rip)        # 603070 <fputc@GLIBC_2.2.5>
  400c46:	68 0b 00 00 00       	pushq  $0xb
  400c4b:	e9 30 ff ff ff       	jmpq   400b80 <.plt>

0000000000400c50 <fgets@plt>:
  400c50:	ff 25 22 24 20 00    	jmpq   *0x202422(%rip)        # 603078 <fgets@GLIBC_2.2.5>
  400c56:	68 0c 00 00 00       	pushq  $0xc
  400c5b:	e9 20 ff ff ff       	jmpq   400b80 <.plt>

0000000000400c60 <tmpfile@plt>:
  400c60:	ff 25 1a 24 20 00    	jmpq   *0x20241a(%rip)        # 603080 <tmpfile@GLIBC_2.2.5>
  400c66:	68 0d 00 00 00       	pushq  $0xd
  400c6b:	e9 10 ff ff ff       	jmpq   400b80 <.plt>

0000000000400c70 <signal@plt>:
  400c70:	ff 25 12 24 20 00    	jmpq   *0x202412(%rip)        # 603088 <signal@GLIBC_2.2.5>
  400c76:	68 0e 00 00 00       	pushq  $0xe
  400c7b:	e9 00 ff ff ff       	jmpq   400b80 <.plt>

0000000000400c80 <gethostbyname@plt>:
  400c80:	ff 25 0a 24 20 00    	jmpq   *0x20240a(%rip)        # 603090 <gethostbyname@GLIBC_2.2.5>
  400c86:	68 0f 00 00 00       	pushq  $0xf
  400c8b:	e9 f0 fe ff ff       	jmpq   400b80 <.plt>

0000000000400c90 <fprintf@plt>:
  400c90:	ff 25 02 24 20 00    	jmpq   *0x202402(%rip)        # 603098 <fprintf@GLIBC_2.2.5>
  400c96:	68 10 00 00 00       	pushq  $0x10
  400c9b:	e9 e0 fe ff ff       	jmpq   400b80 <.plt>

0000000000400ca0 <strtol@plt>:
  400ca0:	ff 25 fa 23 20 00    	jmpq   *0x2023fa(%rip)        # 6030a0 <strtol@GLIBC_2.2.5>
  400ca6:	68 11 00 00 00       	pushq  $0x11
  400cab:	e9 d0 fe ff ff       	jmpq   400b80 <.plt>

0000000000400cb0 <inet_pton@plt>:
  400cb0:	ff 25 f2 23 20 00    	jmpq   *0x2023f2(%rip)        # 6030a8 <inet_pton@GLIBC_2.2.5>
  400cb6:	68 12 00 00 00       	pushq  $0x12
  400cbb:	e9 c0 fe ff ff       	jmpq   400b80 <.plt>

0000000000400cc0 <fflush@plt>:
  400cc0:	ff 25 ea 23 20 00    	jmpq   *0x2023ea(%rip)        # 6030b0 <fflush@GLIBC_2.2.5>
  400cc6:	68 13 00 00 00       	pushq  $0x13
  400ccb:	e9 b0 fe ff ff       	jmpq   400b80 <.plt>

0000000000400cd0 <__isoc99_sscanf@plt>:
  400cd0:	ff 25 e2 23 20 00    	jmpq   *0x2023e2(%rip)        # 6030b8 <__isoc99_sscanf@GLIBC_2.7>
  400cd6:	68 14 00 00 00       	pushq  $0x14
  400cdb:	e9 a0 fe ff ff       	jmpq   400b80 <.plt>

0000000000400ce0 <bcopy@plt>:
  400ce0:	ff 25 da 23 20 00    	jmpq   *0x2023da(%rip)        # 6030c0 <bcopy@GLIBC_2.2.5>
  400ce6:	68 15 00 00 00       	pushq  $0x15
  400ceb:	e9 90 fe ff ff       	jmpq   400b80 <.plt>

0000000000400cf0 <cuserid@plt>:
  400cf0:	ff 25 d2 23 20 00    	jmpq   *0x2023d2(%rip)        # 6030c8 <cuserid@GLIBC_2.2.5>
  400cf6:	68 16 00 00 00       	pushq  $0x16
  400cfb:	e9 80 fe ff ff       	jmpq   400b80 <.plt>

0000000000400d00 <fopen@plt>:
  400d00:	ff 25 ca 23 20 00    	jmpq   *0x2023ca(%rip)        # 6030d0 <fopen@GLIBC_2.2.5>
  400d06:	68 17 00 00 00       	pushq  $0x17
  400d0b:	e9 70 fe ff ff       	jmpq   400b80 <.plt>

0000000000400d10 <strcat@plt>:
  400d10:	ff 25 c2 23 20 00    	jmpq   *0x2023c2(%rip)        # 6030d8 <strcat@GLIBC_2.2.5>
  400d16:	68 18 00 00 00       	pushq  $0x18
  400d1b:	e9 60 fe ff ff       	jmpq   400b80 <.plt>

0000000000400d20 <sprintf@plt>:
  400d20:	ff 25 ba 23 20 00    	jmpq   *0x2023ba(%rip)        # 6030e0 <sprintf@GLIBC_2.2.5>
  400d26:	68 19 00 00 00       	pushq  $0x19
  400d2b:	e9 50 fe ff ff       	jmpq   400b80 <.plt>

0000000000400d30 <exit@plt>:
  400d30:	ff 25 b2 23 20 00    	jmpq   *0x2023b2(%rip)        # 6030e8 <exit@GLIBC_2.2.5>
  400d36:	68 1a 00 00 00       	pushq  $0x1a
  400d3b:	e9 40 fe ff ff       	jmpq   400b80 <.plt>

0000000000400d40 <connect@plt>:
  400d40:	ff 25 aa 23 20 00    	jmpq   *0x2023aa(%rip)        # 6030f0 <connect@GLIBC_2.2.5>
  400d46:	68 1b 00 00 00       	pushq  $0x1b
  400d4b:	e9 30 fe ff ff       	jmpq   400b80 <.plt>

0000000000400d50 <fwrite@plt>:
  400d50:	ff 25 a2 23 20 00    	jmpq   *0x2023a2(%rip)        # 6030f8 <fwrite@GLIBC_2.2.5>
  400d56:	68 1c 00 00 00       	pushq  $0x1c
  400d5b:	e9 20 fe ff ff       	jmpq   400b80 <.plt>

0000000000400d60 <sleep@plt>:
  400d60:	ff 25 9a 23 20 00    	jmpq   *0x20239a(%rip)        # 603100 <sleep@GLIBC_2.2.5>
  400d66:	68 1d 00 00 00       	pushq  $0x1d
  400d6b:	e9 10 fe ff ff       	jmpq   400b80 <.plt>

0000000000400d70 <__ctype_b_loc@plt>:
  400d70:	ff 25 92 23 20 00    	jmpq   *0x202392(%rip)        # 603108 <__ctype_b_loc@GLIBC_2.3>
  400d76:	68 1e 00 00 00       	pushq  $0x1e
  400d7b:	e9 00 fe ff ff       	jmpq   400b80 <.plt>

0000000000400d80 <socket@plt>:
  400d80:	ff 25 8a 23 20 00    	jmpq   *0x20238a(%rip)        # 603110 <socket@GLIBC_2.2.5>
  400d86:	68 1f 00 00 00       	pushq  $0x1f
  400d8b:	e9 f0 fd ff ff       	jmpq   400b80 <.plt>

Disassembly of section .text:

0000000000400d90 <_start>:
  400d90:	31 ed                	xor    %ebp,%ebp
  400d92:	49 89 d1             	mov    %rdx,%r9
  400d95:	5e                   	pop    %rsi
  400d96:	48 89 e2             	mov    %rsp,%rdx
  400d99:	48 83 e4 f0          	and    $0xfffffffffffffff0,%rsp
  400d9d:	50                   	push   %rax
  400d9e:	54                   	push   %rsp
  400d9f:	49 c7 c0 10 1f 40 00 	mov    $0x401f10,%r8
  400da6:	48 c7 c1 a0 1e 40 00 	mov    $0x401ea0,%rcx
  400dad:	48 c7 c7 86 0e 40 00 	mov    $0x400e86,%rdi
  400db4:	ff 15 36 22 20 00    	callq  *0x202236(%rip)        # 602ff0 <__libc_start_main@GLIBC_2.2.5>
  400dba:	f4                   	hlt    
  400dbb:	0f 1f 44 00 00       	nopl   0x0(%rax,%rax,1)

0000000000400dc0 <deregister_tm_clones>:
  400dc0:	b8 a7 37 60 00       	mov    $0x6037a7,%eax
  400dc5:	55                   	push   %rbp
  400dc6:	48 2d a0 37 60 00    	sub    $0x6037a0,%rax
  400dcc:	48 83 f8 0e          	cmp    $0xe,%rax
  400dd0:	48 89 e5             	mov    %rsp,%rbp
  400dd3:	76 1b                	jbe    400df0 <deregister_tm_clones+0x30>
  400dd5:	b8 00 00 00 00       	mov    $0x0,%eax
  400dda:	48 85 c0             	test   %rax,%rax
  400ddd:	74 11                	je     400df0 <deregister_tm_clones+0x30>
  400ddf:	5d                   	pop    %rbp
  400de0:	bf a0 37 60 00       	mov    $0x6037a0,%edi
  400de5:	ff e0                	jmpq   *%rax
  400de7:	66 0f 1f 84 00 00 00 	nopw   0x0(%rax,%rax,1)
  400dee:	00 00 
  400df0:	5d                   	pop    %rbp
  400df1:	c3                   	retq   
  400df2:	0f 1f 40 00          	nopl   0x0(%rax)
  400df6:	66 2e 0f 1f 84 00 00 	nopw   %cs:0x0(%rax,%rax,1)
  400dfd:	00 00 00 

0000000000400e00 <register_tm_clones>:
  400e00:	be a0 37 60 00       	mov    $0x6037a0,%esi
  400e05:	55                   	push   %rbp
  400e06:	48 81 ee a0 37 60 00 	sub    $0x6037a0,%rsi
  400e0d:	48 c1 fe 03          	sar    $0x3,%rsi
  400e11:	48 89 e5             	mov    %rsp,%rbp
  400e14:	48 89 f0             	mov    %rsi,%rax
  400e17:	48 c1 e8 3f          	shr    $0x3f,%rax
  400e1b:	48 01 c6             	add    %rax,%rsi
  400e1e:	48 d1 fe             	sar    %rsi
  400e21:	74 15                	je     400e38 <register_tm_clones+0x38>
  400e23:	b8 00 00 00 00       	mov    $0x0,%eax
  400e28:	48 85 c0             	test   %rax,%rax
  400e2b:	74 0b                	je     400e38 <register_tm_clones+0x38>
  400e2d:	5d                   	pop    %rbp
  400e2e:	bf a0 37 60 00       	mov    $0x6037a0,%edi
  400e33:	ff e0                	jmpq   *%rax
  400e35:	0f 1f 00             	nopl   (%rax)
  400e38:	5d                   	pop    %rbp
  400e39:	c3                   	retq   
  400e3a:	66 0f 1f 44 00 00    	nopw   0x0(%rax,%rax,1)

0000000000400e40 <__do_global_dtors_aux>:
  400e40:	80 3d 71 29 20 00 00 	cmpb   $0x0,0x202971(%rip)        # 6037b8 <completed.6972>
  400e47:	75 11                	jne    400e5a <__do_global_dtors_aux+0x1a>
  400e49:	55                   	push   %rbp
  400e4a:	48 89 e5             	mov    %rsp,%rbp
  400e4d:	e8 6e ff ff ff       	callq  400dc0 <deregister_tm_clones>
  400e52:	5d                   	pop    %rbp
  400e53:	c6 05 5e 29 20 00 01 	movb   $0x1,0x20295e(%rip)        # 6037b8 <completed.6972>
  400e5a:	f3 c3                	repz retq 
  400e5c:	0f 1f 40 00          	nopl   0x0(%rax)

0000000000400e60 <frame_dummy>:
  400e60:	bf 18 2e 60 00       	mov    $0x602e18,%edi
  400e65:	48 83 3f 00          	cmpq   $0x0,(%rdi)
  400e69:	75 05                	jne    400e70 <frame_dummy+0x10>
  400e6b:	eb 93                	jmp    400e00 <register_tm_clones>
  400e6d:	0f 1f 00             	nopl   (%rax)
  400e70:	b8 00 00 00 00       	mov    $0x0,%eax
  400e75:	48 85 c0             	test   %rax,%rax
  400e78:	74 f1                	je     400e6b <frame_dummy+0xb>
  400e7a:	55                   	push   %rbp
  400e7b:	48 89 e5             	mov    %rsp,%rbp
  400e7e:	ff d0                	callq  *%rax
  400e80:	5d                   	pop    %rbp
  400e81:	e9 7a ff ff ff       	jmpq   400e00 <register_tm_clones>

0000000000400e86 <main>:
  400e86:	53                   	push   %rbx
  400e87:	83 ff 01             	cmp    $0x1,%edi
  400e8a:	0f 84 f8 00 00 00    	je     400f88 <main+0x102>
  400e90:	48 89 f3             	mov    %rsi,%rbx
  400e93:	83 ff 02             	cmp    $0x2,%edi
  400e96:	0f 85 1c 01 00 00    	jne    400fb8 <main+0x132>
  400e9c:	48 8b 7e 08          	mov    0x8(%rsi),%rdi
  400ea0:	48 8d 35 b3 14 00 00 	lea    0x14b3(%rip),%rsi        # 40235a <array.3090+0x25a>
  400ea7:	e8 54 fe ff ff       	callq  400d00 <fopen@plt>
  400eac:	48 89 05 0d 29 20 00 	mov    %rax,0x20290d(%rip)        # 6037c0 <infile>
  400eb3:	48 85 c0             	test   %rax,%rax
  400eb6:	0f 84 df 00 00 00    	je     400f9b <main+0x115>
  400ebc:	e8 e3 06 00 00       	callq  4015a4 <initialize_bomb>
  400ec1:	48 8d 3d e0 10 00 00 	lea    0x10e0(%rip),%rdi        # 401fa8 <_IO_stdin_used+0x88>
  400ec8:	e8 f3 fc ff ff       	callq  400bc0 <puts@plt>
  400ecd:	48 8d 3d 14 11 00 00 	lea    0x1114(%rip),%rdi        # 401fe8 <_IO_stdin_used+0xc8>
  400ed4:	e8 e7 fc ff ff       	callq  400bc0 <puts@plt>
  400ed9:	e8 21 0e 00 00       	callq  401cff <read_line>
  400ede:	48 89 c7             	mov    %rax,%rdi
  400ee1:	e8 f0 00 00 00       	callq  400fd6 <phase_1>
  400ee6:	e8 15 0f 00 00       	callq  401e00 <phase_defused>
  400eeb:	48 8d 3d 26 11 00 00 	lea    0x1126(%rip),%rdi        # 402018 <_IO_stdin_used+0xf8>
  400ef2:	e8 c9 fc ff ff       	callq  400bc0 <puts@plt>
  400ef7:	e8 03 0e 00 00       	callq  401cff <read_line>
  400efc:	48 89 c7             	mov    %rax,%rdi
  400eff:	e8 f2 00 00 00       	callq  400ff6 <phase_2>
  400f04:	e8 f7 0e 00 00       	callq  401e00 <phase_defused>
  400f09:	48 8d 3d 4b 10 00 00 	lea    0x104b(%rip),%rdi        # 401f5b <_IO_stdin_used+0x3b>
  400f10:	e8 ab fc ff ff       	callq  400bc0 <puts@plt>
  400f15:	e8 e5 0d 00 00       	callq  401cff <read_line>
  400f1a:	48 89 c7             	mov    %rax,%rdi
  400f1d:	e8 2b 01 00 00       	callq  40104d <phase_3>
  400f22:	e8 d9 0e 00 00       	callq  401e00 <phase_defused>
  400f27:	48 8d 3d 4b 10 00 00 	lea    0x104b(%rip),%rdi        # 401f79 <_IO_stdin_used+0x59>
  400f2e:	e8 8d fc ff ff       	callq  400bc0 <puts@plt>
  400f33:	e8 c7 0d 00 00       	callq  401cff <read_line>
  400f38:	48 89 c7             	mov    %rax,%rdi
  400f3b:	e8 92 02 00 00       	callq  4011d2 <phase_4>
  400f40:	e8 bb 0e 00 00       	callq  401e00 <phase_defused>
  400f45:	48 8d 3d fc 10 00 00 	lea    0x10fc(%rip),%rdi        # 402048 <_IO_stdin_used+0x128>
  400f4c:	e8 6f fc ff ff       	callq  400bc0 <puts@plt>
  400f51:	e8 a9 0d 00 00       	callq  401cff <read_line>
  400f56:	48 89 c7             	mov    %rax,%rdi
  400f59:	e8 b9 02 00 00       	callq  401217 <phase_5>
  400f5e:	e8 9d 0e 00 00       	callq  401e00 <phase_defused>
  400f63:	48 8d 3d 1e 10 00 00 	lea    0x101e(%rip),%rdi        # 401f88 <_IO_stdin_used+0x68>
  400f6a:	e8 51 fc ff ff       	callq  400bc0 <puts@plt>
  400f6f:	e8 8b 0d 00 00       	callq  401cff <read_line>
  400f74:	48 89 c7             	mov    %rax,%rdi
  400f77:	e8 df 02 00 00       	callq  40125b <phase_6>
  400f7c:	e8 7f 0e 00 00       	callq  401e00 <phase_defused>
  400f81:	b8 00 00 00 00       	mov    $0x0,%eax
  400f86:	5b                   	pop    %rbx
  400f87:	c3                   	retq   
  400f88:	48 8b 05 21 28 20 00 	mov    0x202821(%rip),%rax        # 6037b0 <stdin@@GLIBC_2.2.5>
  400f8f:	48 89 05 2a 28 20 00 	mov    %rax,0x20282a(%rip)        # 6037c0 <infile>
  400f96:	e9 21 ff ff ff       	jmpq   400ebc <main+0x36>
  400f9b:	48 8b 53 08          	mov    0x8(%rbx),%rdx
  400f9f:	48 8b 33             	mov    (%rbx),%rsi
  400fa2:	48 8d 3d 7b 0f 00 00 	lea    0xf7b(%rip),%rdi        # 401f24 <_IO_stdin_used+0x4>
  400fa9:	e8 52 fc ff ff       	callq  400c00 <printf@plt>
  400fae:	bf 08 00 00 00       	mov    $0x8,%edi
  400fb3:	e8 78 fd ff ff       	callq  400d30 <exit@plt>
  400fb8:	48 8b 36             	mov    (%rsi),%rsi
  400fbb:	48 8d 3d 7f 0f 00 00 	lea    0xf7f(%rip),%rdi        # 401f41 <_IO_stdin_used+0x21>
  400fc2:	b8 00 00 00 00       	mov    $0x0,%eax
  400fc7:	e8 34 fc ff ff       	callq  400c00 <printf@plt>
  400fcc:	bf 08 00 00 00       	mov    $0x8,%edi
  400fd1:	e8 5a fd ff ff       	callq  400d30 <exit@plt>

0000000000400fd6 <phase_1>:
  400fd6:	48 83 ec 08          	sub    $0x8,%rsp
  400fda:	48 8d 35 8f 10 00 00 	lea    0x108f(%rip),%rsi        # 402070 <_IO_stdin_used+0x150>
  400fe1:	e8 8c 04 00 00       	callq  401472 <strings_not_equal>
  400fe6:	85 c0                	test   %eax,%eax
  400fe8:	75 05                	jne    400fef <phase_1+0x19>
  400fea:	48 83 c4 08          	add    $0x8,%rsp
  400fee:	c3                   	retq   
  400fef:	e8 8e 0c 00 00       	callq  401c82 <explode_bomb>
  400ff4:	eb f4                	jmp    400fea <phase_1+0x14>

0000000000400ff6 <phase_2>:
  400ff6:	41 55                	push   %r13
  400ff8:	41 54                	push   %r12
  400ffa:	55                   	push   %rbp
  400ffb:	53                   	push   %rbx
  400ffc:	48 83 ec 28          	sub    $0x28,%rsp
  401000:	49 89 e4             	mov    %rsp,%r12
  401003:	48 89 e6             	mov    %rsp,%rsi
  401006:	e8 b3 0c 00 00       	callq  401cbe <read_six_numbers>
  40100b:	48 89 e3             	mov    %rsp,%rbx
  40100e:	49 83 c4 0c          	add    $0xc,%r12
  401012:	bd 00 00 00 00       	mov    $0x0,%ebp
  401017:	eb 0d                	jmp    401026 <phase_2+0x30>
  401019:	41 03 6d 00          	add    0x0(%r13),%ebp
  40101d:	48 83 c3 04          	add    $0x4,%rbx
  401021:	4c 39 e3             	cmp    %r12,%rbx
  401024:	74 11                	je     401037 <phase_2+0x41>
  401026:	49 89 dd             	mov    %rbx,%r13
  401029:	8b 43 0c             	mov    0xc(%rbx),%eax
  40102c:	39 03                	cmp    %eax,(%rbx)
  40102e:	74 e9                	je     401019 <phase_2+0x23>
  401030:	e8 4d 0c 00 00       	callq  401c82 <explode_bomb>
  401035:	eb e2                	jmp    401019 <phase_2+0x23>
  401037:	85 ed                	test   %ebp,%ebp
  401039:	74 0b                	je     401046 <phase_2+0x50>
  40103b:	48 83 c4 28          	add    $0x28,%rsp
  40103f:	5b                   	pop    %rbx
  401040:	5d                   	pop    %rbp
  401041:	41 5c                	pop    %r12
  401043:	41 5d                	pop    %r13
  401045:	c3                   	retq   
  401046:	e8 37 0c 00 00       	callq  401c82 <explode_bomb>
  40104b:	eb ee                	jmp    40103b <phase_2+0x45>

000000000040104d <phase_3>:
  40104d:	48 83 ec 18          	sub    $0x18,%rsp
  401051:	48 8d 4c 24 07       	lea    0x7(%rsp),%rcx
  401056:	48 8d 54 24 0c       	lea    0xc(%rsp),%rdx
  40105b:	4c 8d 44 24 08       	lea    0x8(%rsp),%r8
  401060:	48 8d 35 67 10 00 00 	lea    0x1067(%rip),%rsi        # 4020ce <_IO_stdin_used+0x1ae>
  401067:	b8 00 00 00 00       	mov    $0x0,%eax
  40106c:	e8 5f fc ff ff       	callq  400cd0 <__isoc99_sscanf@plt>
  401071:	83 f8 02             	cmp    $0x2,%eax
  401074:	7e 1f                	jle    401095 <phase_3+0x48>
  401076:	83 7c 24 0c 07       	cmpl   $0x7,0xc(%rsp)
  40107b:	0f 87 09 01 00 00    	ja     40118a <phase_3+0x13d>
  401081:	8b 44 24 0c          	mov    0xc(%rsp),%eax
  401085:	48 8d 15 54 10 00 00 	lea    0x1054(%rip),%rdx        # 4020e0 <_IO_stdin_used+0x1c0>
  40108c:	48 63 04 82          	movslq (%rdx,%rax,4),%rax
  401090:	48 01 d0             	add    %rdx,%rax
  401093:	ff e0                	jmpq   *%rax
  401095:	e8 e8 0b 00 00       	callq  401c82 <explode_bomb>
  40109a:	eb da                	jmp    401076 <phase_3+0x29>
  40109c:	b8 62 00 00 00       	mov    $0x62,%eax
  4010a1:	81 7c 24 08 1a 03 00 	cmpl   $0x31a,0x8(%rsp)
  4010a8:	00 
  4010a9:	0f 84 e5 00 00 00    	je     401194 <phase_3+0x147>
  4010af:	e8 ce 0b 00 00       	callq  401c82 <explode_bomb>
  4010b4:	b8 62 00 00 00       	mov    $0x62,%eax
  4010b9:	e9 d6 00 00 00       	jmpq   401194 <phase_3+0x147>
  4010be:	b8 6f 00 00 00       	mov    $0x6f,%eax
  4010c3:	83 7c 24 08 7e       	cmpl   $0x7e,0x8(%rsp)
  4010c8:	0f 84 c6 00 00 00    	je     401194 <phase_3+0x147>
  4010ce:	e8 af 0b 00 00       	callq  401c82 <explode_bomb>
  4010d3:	b8 6f 00 00 00       	mov    $0x6f,%eax
  4010d8:	e9 b7 00 00 00       	jmpq   401194 <phase_3+0x147>
  4010dd:	b8 75 00 00 00       	mov    $0x75,%eax
  4010e2:	81 7c 24 08 bf 02 00 	cmpl   $0x2bf,0x8(%rsp)
  4010e9:	00 
  4010ea:	0f 84 a4 00 00 00    	je     401194 <phase_3+0x147>
  4010f0:	e8 8d 0b 00 00       	callq  401c82 <explode_bomb>
  4010f5:	b8 75 00 00 00       	mov    $0x75,%eax
  4010fa:	e9 95 00 00 00       	jmpq   401194 <phase_3+0x147>
  4010ff:	b8 74 00 00 00       	mov    $0x74,%eax
  401104:	81 7c 24 08 f5 02 00 	cmpl   $0x2f5,0x8(%rsp)
  40110b:	00 
  40110c:	0f 84 82 00 00 00    	je     401194 <phase_3+0x147>
  401112:	e8 6b 0b 00 00       	callq  401c82 <explode_bomb>
  401117:	b8 74 00 00 00       	mov    $0x74,%eax
  40111c:	eb 76                	jmp    401194 <phase_3+0x147>
  40111e:	b8 65 00 00 00       	mov    $0x65,%eax
  401123:	81 7c 24 08 ba 03 00 	cmpl   $0x3ba,0x8(%rsp)
  40112a:	00 
  40112b:	74 67                	je     401194 <phase_3+0x147>
  40112d:	e8 50 0b 00 00       	callq  401c82 <explode_bomb>
  401132:	b8 65 00 00 00       	mov    $0x65,%eax
  401137:	eb 5b                	jmp    401194 <phase_3+0x147>
  401139:	b8 61 00 00 00       	mov    $0x61,%eax
  40113e:	81 7c 24 08 90 03 00 	cmpl   $0x390,0x8(%rsp)
  401145:	00 
  401146:	74 4c                	je     401194 <phase_3+0x147>
  401148:	e8 35 0b 00 00       	callq  401c82 <explode_bomb>
  40114d:	b8 61 00 00 00       	mov    $0x61,%eax
  401152:	eb 40                	jmp    401194 <phase_3+0x147>
  401154:	b8 6d 00 00 00       	mov    $0x6d,%eax
  401159:	81 7c 24 08 c2 00 00 	cmpl   $0xc2,0x8(%rsp)
  401160:	00 
  401161:	74 31                	je     401194 <phase_3+0x147>
  401163:	e8 1a 0b 00 00       	callq  401c82 <explode_bomb>
  401168:	b8 6d 00 00 00       	mov    $0x6d,%eax
  40116d:	eb 25                	jmp    401194 <phase_3+0x147>
  40116f:	b8 7a 00 00 00       	mov    $0x7a,%eax
  401174:	81 7c 24 08 3c 01 00 	cmpl   $0x13c,0x8(%rsp)
  40117b:	00 
  40117c:	74 16                	je     401194 <phase_3+0x147>
  40117e:	e8 ff 0a 00 00       	callq  401c82 <explode_bomb>
  401183:	b8 7a 00 00 00       	mov    $0x7a,%eax
  401188:	eb 0a                	jmp    401194 <phase_3+0x147>
  40118a:	e8 f3 0a 00 00       	callq  401c82 <explode_bomb>
  40118f:	b8 64 00 00 00       	mov    $0x64,%eax
  401194:	3a 44 24 07          	cmp    0x7(%rsp),%al
  401198:	74 05                	je     40119f <phase_3+0x152>
  40119a:	e8 e3 0a 00 00       	callq  401c82 <explode_bomb>
  40119f:	48 83 c4 18          	add    $0x18,%rsp
  4011a3:	c3                   	retq   

00000000004011a4 <func4>:
  4011a4:	b8 01 00 00 00       	mov    $0x1,%eax
  4011a9:	83 ff 01             	cmp    $0x1,%edi
  4011ac:	7e 22                	jle    4011d0 <func4+0x2c>
  4011ae:	55                   	push   %rbp
  4011af:	53                   	push   %rbx
  4011b0:	48 83 ec 08          	sub    $0x8,%rsp
  4011b4:	89 fb                	mov    %edi,%ebx
  4011b6:	8d 7f ff             	lea    -0x1(%rdi),%edi
  4011b9:	e8 e6 ff ff ff       	callq  4011a4 <func4>
  4011be:	89 c5                	mov    %eax,%ebp
  4011c0:	8d 7b fe             	lea    -0x2(%rbx),%edi
  4011c3:	e8 dc ff ff ff       	callq  4011a4 <func4>
  4011c8:	01 e8                	add    %ebp,%eax
  4011ca:	48 83 c4 08          	add    $0x8,%rsp
  4011ce:	5b                   	pop    %rbx
  4011cf:	5d                   	pop    %rbp
  4011d0:	f3 c3                	repz retq 

00000000004011d2 <phase_4>:
  4011d2:	48 83 ec 18          	sub    $0x18,%rsp
  4011d6:	48 8d 54 24 0c       	lea    0xc(%rsp),%rdx
  4011db:	48 8d 35 f2 0e 00 00 	lea    0xef2(%rip),%rsi        # 4020d4 <_IO_stdin_used+0x1b4>
  4011e2:	b8 00 00 00 00       	mov    $0x0,%eax
  4011e7:	e8 e4 fa ff ff       	callq  400cd0 <__isoc99_sscanf@plt>
  4011ec:	83 f8 01             	cmp    $0x1,%eax
  4011ef:	74 1d                	je     40120e <phase_4+0x3c>
  4011f1:	e8 8c 0a 00 00       	callq  401c82 <explode_bomb>
  4011f6:	8b 7c 24 0c          	mov    0xc(%rsp),%edi
  4011fa:	e8 a5 ff ff ff       	callq  4011a4 <func4>
  4011ff:	83 f8 59             	cmp    $0x59,%eax
  401202:	74 05                	je     401209 <phase_4+0x37>
  401204:	e8 79 0a 00 00       	callq  401c82 <explode_bomb>
  401209:	48 83 c4 18          	add    $0x18,%rsp
  40120d:	c3                   	retq   
  40120e:	83 7c 24 0c 00       	cmpl   $0x0,0xc(%rsp)
  401213:	7f e1                	jg     4011f6 <phase_4+0x24>
  401215:	eb da                	jmp    4011f1 <phase_4+0x1f>

0000000000401217 <phase_5>:
  401217:	53                   	push   %rbx
  401218:	48 89 fb             	mov    %rdi,%rbx
  40121b:	e8 34 02 00 00       	callq  401454 <string_length>
  401220:	83 f8 06             	cmp    $0x6,%eax
  401223:	74 05                	je     40122a <phase_5+0x13>
  401225:	e8 58 0a 00 00       	callq  401c82 <explode_bomb>
  40122a:	48 89 d8             	mov    %rbx,%rax
  40122d:	48 8d 7b 06          	lea    0x6(%rbx),%rdi
  401231:	b9 00 00 00 00       	mov    $0x0,%ecx
  401236:	48 8d 35 c3 0e 00 00 	lea    0xec3(%rip),%rsi        # 402100 <array.3090>
  40123d:	0f b6 10             	movzbl (%rax),%edx
  401240:	83 e2 0f             	and    $0xf,%edx
  401243:	03 0c 96             	add    (%rsi,%rdx,4),%ecx
  401246:	48 83 c0 01          	add    $0x1,%rax
  40124a:	48 39 f8             	cmp    %rdi,%rax
  40124d:	75 ee                	jne    40123d <phase_5+0x26>
  40124f:	83 f9 2c             	cmp    $0x2c,%ecx
  401252:	74 05                	je     401259 <phase_5+0x42>
  401254:	e8 29 0a 00 00       	callq  401c82 <explode_bomb>
  401259:	5b                   	pop    %rbx
  40125a:	c3                   	retq   

000000000040125b <phase_6>:
  40125b:	41 55                	push   %r13
  40125d:	41 54                	push   %r12
  40125f:	55                   	push   %rbp
  401260:	53                   	push   %rbx
  401261:	48 83 ec 58          	sub    $0x58,%rsp
  401265:	4c 8d 64 24 30       	lea    0x30(%rsp),%r12
  40126a:	4c 89 e6             	mov    %r12,%rsi
  40126d:	e8 4c 0a 00 00       	callq  401cbe <read_six_numbers>
  401272:	41 bd 00 00 00 00    	mov    $0x0,%r13d
  401278:	eb 25                	jmp    40129f <phase_6+0x44>
  40127a:	41 83 c5 01          	add    $0x1,%r13d
  40127e:	41 83 fd 06          	cmp    $0x6,%r13d
  401282:	74 38                	je     4012bc <phase_6+0x61>
  401284:	44 89 eb             	mov    %r13d,%ebx
  401287:	48 63 c3             	movslq %ebx,%rax
  40128a:	8b 44 84 30          	mov    0x30(%rsp,%rax,4),%eax
  40128e:	39 45 00             	cmp    %eax,0x0(%rbp)
  401291:	74 22                	je     4012b5 <phase_6+0x5a>
  401293:	83 c3 01             	add    $0x1,%ebx
  401296:	83 fb 05             	cmp    $0x5,%ebx
  401299:	7e ec                	jle    401287 <phase_6+0x2c>
  40129b:	49 83 c4 04          	add    $0x4,%r12
  40129f:	4c 89 e5             	mov    %r12,%rbp
  4012a2:	41 8b 04 24          	mov    (%r12),%eax
  4012a6:	83 e8 01             	sub    $0x1,%eax
  4012a9:	83 f8 05             	cmp    $0x5,%eax
  4012ac:	76 cc                	jbe    40127a <phase_6+0x1f>
  4012ae:	e8 cf 09 00 00       	callq  401c82 <explode_bomb>
  4012b3:	eb c5                	jmp    40127a <phase_6+0x1f>
  4012b5:	e8 c8 09 00 00       	callq  401c82 <explode_bomb>
  4012ba:	eb d7                	jmp    401293 <phase_6+0x38>
  4012bc:	be 00 00 00 00       	mov    $0x0,%esi
  4012c1:	8b 4c 34 30          	mov    0x30(%rsp,%rsi,1),%ecx
  4012c5:	b8 01 00 00 00       	mov    $0x1,%eax
  4012ca:	48 8d 15 7f 24 20 00 	lea    0x20247f(%rip),%rdx        # 603750 <node1>
  4012d1:	83 f9 01             	cmp    $0x1,%ecx
  4012d4:	7e 0b                	jle    4012e1 <phase_6+0x86>
  4012d6:	48 8b 52 08          	mov    0x8(%rdx),%rdx
  4012da:	83 c0 01             	add    $0x1,%eax
  4012dd:	39 c8                	cmp    %ecx,%eax
  4012df:	75 f5                	jne    4012d6 <phase_6+0x7b>
  4012e1:	48 89 14 74          	mov    %rdx,(%rsp,%rsi,2)
  4012e5:	48 83 c6 04          	add    $0x4,%rsi
  4012e9:	48 83 fe 18          	cmp    $0x18,%rsi
  4012ed:	75 d2                	jne    4012c1 <phase_6+0x66>
  4012ef:	48 8b 1c 24          	mov    (%rsp),%rbx
  4012f3:	48 89 e0             	mov    %rsp,%rax
  4012f6:	48 8d 74 24 28       	lea    0x28(%rsp),%rsi
  4012fb:	48 89 d9             	mov    %rbx,%rcx
  4012fe:	48 8b 50 08          	mov    0x8(%rax),%rdx
  401302:	48 89 51 08          	mov    %rdx,0x8(%rcx)
  401306:	48 83 c0 08          	add    $0x8,%rax
  40130a:	48 89 d1             	mov    %rdx,%rcx
  40130d:	48 39 c6             	cmp    %rax,%rsi
  401310:	75 ec                	jne    4012fe <phase_6+0xa3>
  401312:	48 c7 42 08 00 00 00 	movq   $0x0,0x8(%rdx)
  401319:	00 
  40131a:	bd 05 00 00 00       	mov    $0x5,%ebp
  40131f:	eb 09                	jmp    40132a <phase_6+0xcf>
  401321:	48 8b 5b 08          	mov    0x8(%rbx),%rbx
  401325:	83 ed 01             	sub    $0x1,%ebp
  401328:	74 11                	je     40133b <phase_6+0xe0>
  40132a:	48 8b 43 08          	mov    0x8(%rbx),%rax
  40132e:	8b 00                	mov    (%rax),%eax
  401330:	39 03                	cmp    %eax,(%rbx)
  401332:	7d ed                	jge    401321 <phase_6+0xc6>
  401334:	e8 49 09 00 00       	callq  401c82 <explode_bomb>
  401339:	eb e6                	jmp    401321 <phase_6+0xc6>
  40133b:	48 83 c4 58          	add    $0x58,%rsp
  40133f:	5b                   	pop    %rbx
  401340:	5d                   	pop    %rbp
  401341:	41 5c                	pop    %r12
  401343:	41 5d                	pop    %r13
  401345:	c3                   	retq   

0000000000401346 <fun7>:
  401346:	48 85 ff             	test   %rdi,%rdi
  401349:	74 32                	je     40137d <fun7+0x37>
  40134b:	48 83 ec 08          	sub    $0x8,%rsp
  40134f:	8b 17                	mov    (%rdi),%edx
  401351:	39 f2                	cmp    %esi,%edx
  401353:	7f 1b                	jg     401370 <fun7+0x2a>
  401355:	b8 00 00 00 00       	mov    $0x0,%eax
  40135a:	39 f2                	cmp    %esi,%edx
  40135c:	74 0d                	je     40136b <fun7+0x25>
  40135e:	48 8b 7f 10          	mov    0x10(%rdi),%rdi
  401362:	e8 df ff ff ff       	callq  401346 <fun7>
  401367:	8d 44 00 01          	lea    0x1(%rax,%rax,1),%eax
  40136b:	48 83 c4 08          	add    $0x8,%rsp
  40136f:	c3                   	retq   
  401370:	48 8b 7f 08          	mov    0x8(%rdi),%rdi
  401374:	e8 cd ff ff ff       	callq  401346 <fun7>
  401379:	01 c0                	add    %eax,%eax
  40137b:	eb ee                	jmp    40136b <fun7+0x25>
  40137d:	b8 ff ff ff ff       	mov    $0xffffffff,%eax
  401382:	c3                   	retq   

0000000000401383 <secret_phase>:
  401383:	53                   	push   %rbx
  401384:	e8 76 09 00 00       	callq  401cff <read_line>
  401389:	ba 0a 00 00 00       	mov    $0xa,%edx
  40138e:	be 00 00 00 00       	mov    $0x0,%esi
  401393:	48 89 c7             	mov    %rax,%rdi
  401396:	e8 05 f9 ff ff       	callq  400ca0 <strtol@plt>
  40139b:	48 89 c3             	mov    %rax,%rbx
  40139e:	8d 40 ff             	lea    -0x1(%rax),%eax
  4013a1:	3d e8 03 00 00       	cmp    $0x3e8,%eax
  4013a6:	77 25                	ja     4013cd <secret_phase+0x4a>
  4013a8:	89 de                	mov    %ebx,%esi
  4013aa:	48 8d 3d bf 22 20 00 	lea    0x2022bf(%rip),%rdi        # 603670 <n1>
  4013b1:	e8 90 ff ff ff       	callq  401346 <fun7>
  4013b6:	85 c0                	test   %eax,%eax
  4013b8:	75 1a                	jne    4013d4 <secret_phase+0x51>
  4013ba:	48 8d 3d e7 0c 00 00 	lea    0xce7(%rip),%rdi        # 4020a8 <_IO_stdin_used+0x188>
  4013c1:	e8 fa f7 ff ff       	callq  400bc0 <puts@plt>
  4013c6:	e8 35 0a 00 00       	callq  401e00 <phase_defused>
  4013cb:	5b                   	pop    %rbx
  4013cc:	c3                   	retq   
  4013cd:	e8 b0 08 00 00       	callq  401c82 <explode_bomb>
  4013d2:	eb d4                	jmp    4013a8 <secret_phase+0x25>
  4013d4:	e8 a9 08 00 00       	callq  401c82 <explode_bomb>
  4013d9:	eb df                	jmp    4013ba <secret_phase+0x37>

00000000004013db <sig_handler>:
  4013db:	48 83 ec 08          	sub    $0x8,%rsp
  4013df:	48 8d 3d 5a 0d 00 00 	lea    0xd5a(%rip),%rdi        # 402140 <array.3090+0x40>
  4013e6:	e8 d5 f7 ff ff       	callq  400bc0 <puts@plt>
  4013eb:	bf 03 00 00 00       	mov    $0x3,%edi
  4013f0:	e8 6b f9 ff ff       	callq  400d60 <sleep@plt>
  4013f5:	48 8d 3d 7c 0e 00 00 	lea    0xe7c(%rip),%rdi        # 402278 <array.3090+0x178>
  4013fc:	b8 00 00 00 00       	mov    $0x0,%eax
  401401:	e8 fa f7 ff ff       	callq  400c00 <printf@plt>
  401406:	48 8b 3d 93 23 20 00 	mov    0x202393(%rip),%rdi        # 6037a0 <stdout@@GLIBC_2.2.5>
  40140d:	e8 ae f8 ff ff       	callq  400cc0 <fflush@plt>
  401412:	bf 01 00 00 00       	mov    $0x1,%edi
  401417:	e8 44 f9 ff ff       	callq  400d60 <sleep@plt>
  40141c:	48 8d 3d 5d 0e 00 00 	lea    0xe5d(%rip),%rdi        # 402280 <array.3090+0x180>
  401423:	e8 98 f7 ff ff       	callq  400bc0 <puts@plt>
  401428:	bf 10 00 00 00       	mov    $0x10,%edi
  40142d:	e8 fe f8 ff ff       	callq  400d30 <exit@plt>

0000000000401432 <invalid_phase>:
  401432:	48 83 ec 08          	sub    $0x8,%rsp
  401436:	48 89 fe             	mov    %rdi,%rsi
  401439:	48 8d 3d 48 0e 00 00 	lea    0xe48(%rip),%rdi        # 402288 <array.3090+0x188>
  401440:	b8 00 00 00 00       	mov    $0x0,%eax
  401445:	e8 b6 f7 ff ff       	callq  400c00 <printf@plt>
  40144a:	bf 08 00 00 00       	mov    $0x8,%edi
  40144f:	e8 dc f8 ff ff       	callq  400d30 <exit@plt>

0000000000401454 <string_length>:
  401454:	80 3f 00             	cmpb   $0x0,(%rdi)
  401457:	74 13                	je     40146c <string_length+0x18>
  401459:	b8 00 00 00 00       	mov    $0x0,%eax
  40145e:	48 83 c7 01          	add    $0x1,%rdi
  401462:	83 c0 01             	add    $0x1,%eax
  401465:	80 3f 00             	cmpb   $0x0,(%rdi)
  401468:	75 f4                	jne    40145e <string_length+0xa>
  40146a:	f3 c3                	repz retq 
  40146c:	b8 00 00 00 00       	mov    $0x0,%eax
  401471:	c3                   	retq   

0000000000401472 <strings_not_equal>:
  401472:	41 54                	push   %r12
  401474:	55                   	push   %rbp
  401475:	53                   	push   %rbx
  401476:	48 89 fb             	mov    %rdi,%rbx
  401479:	48 89 f5             	mov    %rsi,%rbp
  40147c:	e8 d3 ff ff ff       	callq  401454 <string_length>
  401481:	41 89 c4             	mov    %eax,%r12d
  401484:	48 89 ef             	mov    %rbp,%rdi
  401487:	e8 c8 ff ff ff       	callq  401454 <string_length>
  40148c:	ba 01 00 00 00       	mov    $0x1,%edx
  401491:	41 39 c4             	cmp    %eax,%r12d
  401494:	74 07                	je     40149d <strings_not_equal+0x2b>
  401496:	89 d0                	mov    %edx,%eax
  401498:	5b                   	pop    %rbx
  401499:	5d                   	pop    %rbp
  40149a:	41 5c                	pop    %r12
  40149c:	c3                   	retq   
  40149d:	0f b6 03             	movzbl (%rbx),%eax
  4014a0:	84 c0                	test   %al,%al
  4014a2:	74 27                	je     4014cb <strings_not_equal+0x59>
  4014a4:	3a 45 00             	cmp    0x0(%rbp),%al
  4014a7:	75 29                	jne    4014d2 <strings_not_equal+0x60>
  4014a9:	48 83 c3 01          	add    $0x1,%rbx
  4014ad:	48 83 c5 01          	add    $0x1,%rbp
  4014b1:	0f b6 03             	movzbl (%rbx),%eax
  4014b4:	84 c0                	test   %al,%al
  4014b6:	74 0c                	je     4014c4 <strings_not_equal+0x52>
  4014b8:	3a 45 00             	cmp    0x0(%rbp),%al
  4014bb:	74 ec                	je     4014a9 <strings_not_equal+0x37>
  4014bd:	ba 01 00 00 00       	mov    $0x1,%edx
  4014c2:	eb d2                	jmp    401496 <strings_not_equal+0x24>
  4014c4:	ba 00 00 00 00       	mov    $0x0,%edx
  4014c9:	eb cb                	jmp    401496 <strings_not_equal+0x24>
  4014cb:	ba 00 00 00 00       	mov    $0x0,%edx
  4014d0:	eb c4                	jmp    401496 <strings_not_equal+0x24>
  4014d2:	ba 01 00 00 00       	mov    $0x1,%edx
  4014d7:	eb bd                	jmp    401496 <strings_not_equal+0x24>

00000000004014d9 <open_clientfd>:
  4014d9:	41 54                	push   %r12
  4014db:	55                   	push   %rbp
  4014dc:	53                   	push   %rbx
  4014dd:	48 83 ec 10          	sub    $0x10,%rsp
  4014e1:	49 89 fc             	mov    %rdi,%r12
  4014e4:	89 f3                	mov    %esi,%ebx
  4014e6:	ba 00 00 00 00       	mov    $0x0,%edx
  4014eb:	be 01 00 00 00       	mov    $0x1,%esi
  4014f0:	bf 02 00 00 00       	mov    $0x2,%edi
  4014f5:	e8 86 f8 ff ff       	callq  400d80 <socket@plt>
  4014fa:	85 c0                	test   %eax,%eax
  4014fc:	78 64                	js     401562 <open_clientfd+0x89>
  4014fe:	89 c5                	mov    %eax,%ebp
  401500:	4c 89 e7             	mov    %r12,%rdi
  401503:	e8 78 f7 ff ff       	callq  400c80 <gethostbyname@plt>
  401508:	48 85 c0             	test   %rax,%rax
  40150b:	74 6b                	je     401578 <open_clientfd+0x9f>
  40150d:	48 c7 04 24 00 00 00 	movq   $0x0,(%rsp)
  401514:	00 
  401515:	48 c7 44 24 08 00 00 	movq   $0x0,0x8(%rsp)
  40151c:	00 00 
  40151e:	66 c7 04 24 02 00    	movw   $0x2,(%rsp)
  401524:	48 63 50 14          	movslq 0x14(%rax),%rdx
  401528:	48 8d 74 24 04       	lea    0x4(%rsp),%rsi
  40152d:	48 8b 40 18          	mov    0x18(%rax),%rax
  401531:	48 8b 38             	mov    (%rax),%rdi
  401534:	e8 a7 f7 ff ff       	callq  400ce0 <bcopy@plt>
  401539:	89 de                	mov    %ebx,%esi
  40153b:	66 c1 ce 08          	ror    $0x8,%si
  40153f:	66 89 74 24 02       	mov    %si,0x2(%rsp)
  401544:	ba 10 00 00 00       	mov    $0x10,%edx
  401549:	48 89 e6             	mov    %rsp,%rsi
  40154c:	89 ef                	mov    %ebp,%edi
  40154e:	e8 ed f7 ff ff       	callq  400d40 <connect@plt>
  401553:	85 c0                	test   %eax,%eax
  401555:	78 37                	js     40158e <open_clientfd+0xb5>
  401557:	89 e8                	mov    %ebp,%eax
  401559:	48 83 c4 10          	add    $0x10,%rsp
  40155d:	5b                   	pop    %rbx
  40155e:	5d                   	pop    %rbp
  40155f:	41 5c                	pop    %r12
  401561:	c3                   	retq   
  401562:	48 8d 3d 30 0d 00 00 	lea    0xd30(%rip),%rdi        # 402299 <array.3090+0x199>
  401569:	e8 52 f6 ff ff       	callq  400bc0 <puts@plt>
  40156e:	bf 08 00 00 00       	mov    $0x8,%edi
  401573:	e8 b8 f7 ff ff       	callq  400d30 <exit@plt>
  401578:	48 8d 3d 28 0d 00 00 	lea    0xd28(%rip),%rdi        # 4022a7 <array.3090+0x1a7>
  40157f:	e8 3c f6 ff ff       	callq  400bc0 <puts@plt>
  401584:	bf 08 00 00 00       	mov    $0x8,%edi
  401589:	e8 a2 f7 ff ff       	callq  400d30 <exit@plt>
  40158e:	48 8d 3d 20 0d 00 00 	lea    0xd20(%rip),%rdi        # 4022b5 <array.3090+0x1b5>
  401595:	e8 26 f6 ff ff       	callq  400bc0 <puts@plt>
  40159a:	bf 08 00 00 00       	mov    $0x8,%edi
  40159f:	e8 8c f7 ff ff       	callq  400d30 <exit@plt>

00000000004015a4 <initialize_bomb>:
  4015a4:	48 83 ec 08          	sub    $0x8,%rsp
  4015a8:	48 8d 35 2c fe ff ff 	lea    -0x1d4(%rip),%rsi        # 4013db <sig_handler>
  4015af:	bf 02 00 00 00       	mov    $0x2,%edi
  4015b4:	e8 b7 f6 ff ff       	callq  400c70 <signal@plt>
  4015b9:	be 50 00 00 00       	mov    $0x50,%esi
  4015be:	48 8d 3d fe 0c 00 00 	lea    0xcfe(%rip),%rdi        # 4022c3 <array.3090+0x1c3>
  4015c5:	e8 0f ff ff ff       	callq  4014d9 <open_clientfd>
  4015ca:	89 c7                	mov    %eax,%edi
  4015cc:	e8 5f f6 ff ff       	callq  400c30 <close@plt>
  4015d1:	48 83 c4 08          	add    $0x8,%rsp
  4015d5:	c3                   	retq   

00000000004015d6 <blank_line>:
  4015d6:	55                   	push   %rbp
  4015d7:	53                   	push   %rbx
  4015d8:	48 83 ec 08          	sub    $0x8,%rsp
  4015dc:	48 89 fd             	mov    %rdi,%rbp
  4015df:	0f b6 5d 00          	movzbl 0x0(%rbp),%ebx
  4015e3:	84 db                	test   %bl,%bl
  4015e5:	74 1e                	je     401605 <blank_line+0x2f>
  4015e7:	e8 84 f7 ff ff       	callq  400d70 <__ctype_b_loc@plt>
  4015ec:	48 83 c5 01          	add    $0x1,%rbp
  4015f0:	48 0f be db          	movsbq %bl,%rbx
  4015f4:	48 8b 00             	mov    (%rax),%rax
  4015f7:	f6 44 58 01 20       	testb  $0x20,0x1(%rax,%rbx,2)
  4015fc:	75 e1                	jne    4015df <blank_line+0x9>
  4015fe:	b8 00 00 00 00       	mov    $0x0,%eax
  401603:	eb 05                	jmp    40160a <blank_line+0x34>
  401605:	b8 01 00 00 00       	mov    $0x1,%eax
  40160a:	48 83 c4 08          	add    $0x8,%rsp
  40160e:	5b                   	pop    %rbx
  40160f:	5d                   	pop    %rbp
  401610:	c3                   	retq   

0000000000401611 <skip>:
  401611:	55                   	push   %rbp
  401612:	53                   	push   %rbx
  401613:	48 83 ec 08          	sub    $0x8,%rsp
  401617:	48 8d 2d c2 21 20 00 	lea    0x2021c2(%rip),%rbp        # 6037e0 <input_strings>
  40161e:	48 63 05 97 21 20 00 	movslq 0x202197(%rip),%rax        # 6037bc <num_input_strings>
  401625:	48 8d 3c 80          	lea    (%rax,%rax,4),%rdi
  401629:	48 c1 e7 04          	shl    $0x4,%rdi
  40162d:	48 01 ef             	add    %rbp,%rdi
  401630:	48 8b 15 89 21 20 00 	mov    0x202189(%rip),%rdx        # 6037c0 <infile>
  401637:	be 50 00 00 00       	mov    $0x50,%esi
  40163c:	e8 0f f6 ff ff       	callq  400c50 <fgets@plt>
  401641:	48 89 c3             	mov    %rax,%rbx
  401644:	48 85 c0             	test   %rax,%rax
  401647:	74 0c                	je     401655 <skip+0x44>
  401649:	48 89 c7             	mov    %rax,%rdi
  40164c:	e8 85 ff ff ff       	callq  4015d6 <blank_line>
  401651:	85 c0                	test   %eax,%eax
  401653:	75 c9                	jne    40161e <skip+0xd>
  401655:	48 89 d8             	mov    %rbx,%rax
  401658:	48 83 c4 08          	add    $0x8,%rsp
  40165c:	5b                   	pop    %rbx
  40165d:	5d                   	pop    %rbp
  40165e:	c3                   	retq   

000000000040165f <writen>:
  40165f:	41 56                	push   %r14
  401661:	41 55                	push   %r13
  401663:	41 54                	push   %r12
  401665:	55                   	push   %rbp
  401666:	53                   	push   %rbx
  401667:	49 89 d5             	mov    %rdx,%r13
  40166a:	48 85 d2             	test   %rdx,%rdx
  40166d:	74 3b                	je     4016aa <writen+0x4b>
  40166f:	41 89 fc             	mov    %edi,%r12d
  401672:	48 89 f5             	mov    %rsi,%rbp
  401675:	48 89 d3             	mov    %rdx,%rbx
  401678:	41 be 00 00 00 00    	mov    $0x0,%r14d
  40167e:	eb 08                	jmp    401688 <writen+0x29>
  401680:	48 01 c5             	add    %rax,%rbp
  401683:	48 29 c3             	sub    %rax,%rbx
  401686:	74 22                	je     4016aa <writen+0x4b>
  401688:	48 89 da             	mov    %rbx,%rdx
  40168b:	48 89 ee             	mov    %rbp,%rsi
  40168e:	44 89 e7             	mov    %r12d,%edi
  401691:	e8 3a f5 ff ff       	callq  400bd0 <write@plt>
  401696:	48 85 c0             	test   %rax,%rax
  401699:	7f e5                	jg     401680 <writen+0x21>
  40169b:	e8 00 f5 ff ff       	callq  400ba0 <__errno_location@plt>
  4016a0:	83 38 04             	cmpl   $0x4,(%rax)
  4016a3:	75 11                	jne    4016b6 <writen+0x57>
  4016a5:	4c 89 f0             	mov    %r14,%rax
  4016a8:	eb d6                	jmp    401680 <writen+0x21>
  4016aa:	4c 89 e8             	mov    %r13,%rax
  4016ad:	5b                   	pop    %rbx
  4016ae:	5d                   	pop    %rbp
  4016af:	41 5c                	pop    %r12
  4016b1:	41 5d                	pop    %r13
  4016b3:	41 5e                	pop    %r14
  4016b5:	c3                   	retq   
  4016b6:	48 c7 c0 ff ff ff ff 	mov    $0xffffffffffffffff,%rax
  4016bd:	eb ee                	jmp    4016ad <writen+0x4e>

00000000004016bf <send_msg>:
  4016bf:	41 57                	push   %r15
  4016c1:	41 56                	push   %r14
  4016c3:	41 55                	push   %r13
  4016c5:	41 54                	push   %r12
  4016c7:	55                   	push   %rbp
  4016c8:	53                   	push   %rbx
  4016c9:	48 81 ec 68 24 00 00 	sub    $0x2468,%rsp
  4016d0:	41 89 fc             	mov    %edi,%r12d
  4016d3:	ba 00 00 00 00       	mov    $0x0,%edx
  4016d8:	be 01 00 00 00       	mov    $0x1,%esi
  4016dd:	bf 02 00 00 00       	mov    $0x2,%edi
  4016e2:	e8 99 f6 ff ff       	callq  400d80 <socket@plt>
  4016e7:	41 89 c7             	mov    %eax,%r15d
  4016ea:	85 c0                	test   %eax,%eax
  4016ec:	0f 88 2a 02 00 00    	js     40191c <send_msg+0x25d>
  4016f2:	48 c7 84 24 50 24 00 	movq   $0x0,0x2450(%rsp)
  4016f9:	00 00 00 00 00 
  4016fe:	48 c7 84 24 58 24 00 	movq   $0x0,0x2458(%rsp)
  401705:	00 00 00 00 00 
  40170a:	66 c7 84 24 50 24 00 	movw   $0x2,0x2450(%rsp)
  401711:	00 02 00 
  401714:	66 c7 84 24 52 24 00 	movw   $0x7ac8,0x2452(%rsp)
  40171b:	00 c8 7a 
  40171e:	48 8d 94 24 54 24 00 	lea    0x2454(%rsp),%rdx
  401725:	00 
  401726:	48 8d 35 96 0b 00 00 	lea    0xb96(%rip),%rsi        # 4022c3 <array.3090+0x1c3>
  40172d:	bf 02 00 00 00       	mov    $0x2,%edi
  401732:	b8 00 00 00 00       	mov    $0x0,%eax
  401737:	e8 74 f5 ff ff       	callq  400cb0 <inet_pton@plt>
  40173c:	85 c0                	test   %eax,%eax
  40173e:	0f 88 09 02 00 00    	js     40194d <send_msg+0x28e>
  401744:	48 8d b4 24 50 24 00 	lea    0x2450(%rsp),%rsi
  40174b:	00 
  40174c:	ba 10 00 00 00       	mov    $0x10,%edx
  401751:	44 89 ff             	mov    %r15d,%edi
  401754:	e8 e7 f5 ff ff       	callq  400d40 <connect@plt>
  401759:	85 c0                	test   %eax,%eax
  40175b:	0f 88 22 02 00 00    	js     401983 <send_msg+0x2c4>
  401761:	48 8d 6c 24 50       	lea    0x50(%rsp),%rbp
  401766:	48 b8 53 75 62 6a 65 	movabs $0x3a7463656a627553,%rax
  40176d:	63 74 3a 
  401770:	48 89 44 24 50       	mov    %rax,0x50(%rsp)
  401775:	48 b8 20 42 6f 6d 62 	movabs $0x6f6e20626d6f4220,%rax
  40177c:	20 6e 6f 
  40177f:	48 89 44 24 58       	mov    %rax,0x58(%rsp)
  401784:	48 b8 74 69 66 69 63 	movabs $0x6974616369666974,%rax
  40178b:	61 74 69 
  40178e:	48 89 44 24 60       	mov    %rax,0x60(%rsp)
  401793:	c7 44 24 68 6f 6e 0a 	movl   $0xa6e6f,0x68(%rsp)
  40179a:	00 
  40179b:	48 8d 9c 24 50 04 00 	lea    0x450(%rsp),%rbx
  4017a2:	00 
  4017a3:	48 89 ee             	mov    %rbp,%rsi
  4017a6:	48 89 df             	mov    %rbx,%rdi
  4017a9:	e8 62 f5 ff ff       	callq  400d10 <strcat@plt>
  4017ae:	66 c7 44 24 50 0a 00 	movw   $0xa,0x50(%rsp)
  4017b5:	48 89 ee             	mov    %rbp,%rsi
  4017b8:	48 89 df             	mov    %rbx,%rdi
  4017bb:	e8 50 f5 ff ff       	callq  400d10 <strcat@plt>
  4017c0:	bf 00 00 00 00       	mov    $0x0,%edi
  4017c5:	e8 26 f5 ff ff       	callq  400cf0 <cuserid@plt>
  4017ca:	48 85 c0             	test   %rax,%rax
  4017cd:	0f 84 e6 01 00 00    	je     4019b9 <send_msg+0x2fa>
  4017d3:	48 89 e7             	mov    %rsp,%rdi
  4017d6:	48 89 c6             	mov    %rax,%rsi
  4017d9:	e8 d2 f3 ff ff       	callq  400bb0 <strcpy@plt>
  4017de:	45 85 e4             	test   %r12d,%r12d
  4017e1:	48 8d 05 f1 0a 00 00 	lea    0xaf1(%rip),%rax        # 4022d9 <array.3090+0x1d9>
  4017e8:	4c 8d 0d e2 0a 00 00 	lea    0xae2(%rip),%r9        # 4022d1 <array.3090+0x1d1>
  4017ef:	4c 0f 44 c8          	cmove  %rax,%r9
  4017f3:	48 8d 5c 24 50       	lea    0x50(%rsp),%rbx
  4017f8:	48 83 ec 08          	sub    $0x8,%rsp
  4017fc:	8b 05 ba 1f 20 00    	mov    0x201fba(%rip),%eax        # 6037bc <num_input_strings>
  401802:	50                   	push   %rax
  401803:	4c 8d 44 24 10       	lea    0x10(%rsp),%r8
  401808:	8b 0d 52 1e 20 00    	mov    0x201e52(%rip),%ecx        # 603660 <bomb_id>
  40180e:	48 8d 15 4b 1a 20 00 	lea    0x201a4b(%rip),%rdx        # 603260 <lab_id>
  401815:	48 8d 35 e1 0a 00 00 	lea    0xae1(%rip),%rsi        # 4022fd <array.3090+0x1fd>
  40181c:	48 89 df             	mov    %rbx,%rdi
  40181f:	b8 00 00 00 00       	mov    $0x0,%eax
  401824:	e8 f7 f4 ff ff       	callq  400d20 <sprintf@plt>
  401829:	48 8d bc 24 60 04 00 	lea    0x460(%rsp),%rdi
  401830:	00 
  401831:	48 89 de             	mov    %rbx,%rsi
  401834:	e8 d7 f4 ff ff       	callq  400d10 <strcat@plt>
  401839:	48 83 c4 10          	add    $0x10,%rsp
  40183d:	83 3d 78 1f 20 00 00 	cmpl   $0x0,0x201f78(%rip)        # 6037bc <num_input_strings>
  401844:	7e 70                	jle    4018b6 <send_msg+0x1f7>
  401846:	bb 00 00 00 00       	mov    $0x0,%ebx
  40184b:	4c 8d 35 8e 1f 20 00 	lea    0x201f8e(%rip),%r14        # 6037e0 <input_strings>
  401852:	49 89 e5             	mov    %rsp,%r13
  401855:	48 8d 6c 24 50       	lea    0x50(%rsp),%rbp
  40185a:	4c 8d a4 24 50 04 00 	lea    0x450(%rsp),%r12
  401861:	00 
  401862:	48 63 c3             	movslq %ebx,%rax
  401865:	48 8d 04 80          	lea    (%rax,%rax,4),%rax
  401869:	48 c1 e0 04          	shl    $0x4,%rax
  40186d:	4c 01 f0             	add    %r14,%rax
  401870:	83 c3 01             	add    $0x1,%ebx
  401873:	48 83 ec 08          	sub    $0x8,%rsp
  401877:	50                   	push   %rax
  401878:	41 89 d9             	mov    %ebx,%r9d
  40187b:	4d 89 e8             	mov    %r13,%r8
  40187e:	8b 0d dc 1d 20 00    	mov    0x201ddc(%rip),%ecx        # 603660 <bomb_id>
  401884:	48 8d 15 d5 19 20 00 	lea    0x2019d5(%rip),%rdx        # 603260 <lab_id>
  40188b:	48 8d 35 87 0a 00 00 	lea    0xa87(%rip),%rsi        # 402319 <array.3090+0x219>
  401892:	48 89 ef             	mov    %rbp,%rdi
  401895:	b8 00 00 00 00       	mov    $0x0,%eax
  40189a:	e8 81 f4 ff ff       	callq  400d20 <sprintf@plt>
  40189f:	48 89 ee             	mov    %rbp,%rsi
  4018a2:	4c 89 e7             	mov    %r12,%rdi
  4018a5:	e8 66 f4 ff ff       	callq  400d10 <strcat@plt>
  4018aa:	48 83 c4 10          	add    $0x10,%rsp
  4018ae:	39 1d 08 1f 20 00    	cmp    %ebx,0x201f08(%rip)        # 6037bc <num_input_strings>
  4018b4:	7f ac                	jg     401862 <send_msg+0x1a3>
  4018b6:	48 8d ac 24 50 04 00 	lea    0x450(%rsp),%rbp
  4018bd:	00 
  4018be:	49 c7 c4 ff ff ff ff 	mov    $0xffffffffffffffff,%r12
  4018c5:	bb 00 00 00 00       	mov    $0x0,%ebx
  4018ca:	4c 89 e1             	mov    %r12,%rcx
  4018cd:	48 89 ef             	mov    %rbp,%rdi
  4018d0:	89 d8                	mov    %ebx,%eax
  4018d2:	f2 ae                	repnz scas %es:(%rdi),%al
  4018d4:	48 f7 d1             	not    %rcx
  4018d7:	4a 8d 14 21          	lea    (%rcx,%r12,1),%rdx
  4018db:	48 89 ee             	mov    %rbp,%rsi
  4018de:	44 89 ff             	mov    %r15d,%edi
  4018e1:	e8 79 fd ff ff       	callq  40165f <writen>
  4018e6:	48 89 c2             	mov    %rax,%rdx
  4018e9:	4c 89 e1             	mov    %r12,%rcx
  4018ec:	48 89 ef             	mov    %rbp,%rdi
  4018ef:	89 d8                	mov    %ebx,%eax
  4018f1:	f2 ae                	repnz scas %es:(%rdi),%al
  4018f3:	48 f7 d1             	not    %rcx
  4018f6:	4c 01 e1             	add    %r12,%rcx
  4018f9:	48 39 ca             	cmp    %rcx,%rdx
  4018fc:	0f 82 cf 00 00 00    	jb     4019d1 <send_msg+0x312>
  401902:	44 89 ff             	mov    %r15d,%edi
  401905:	e8 26 f3 ff ff       	callq  400c30 <close@plt>
  40190a:	48 81 c4 68 24 00 00 	add    $0x2468,%rsp
  401911:	5b                   	pop    %rbx
  401912:	5d                   	pop    %rbp
  401913:	41 5c                	pop    %r12
  401915:	41 5d                	pop    %r13
  401917:	41 5e                	pop    %r14
  401919:	41 5f                	pop    %r15
  40191b:	c3                   	retq   
  40191c:	48 8d 15 bf 09 00 00 	lea    0x9bf(%rip),%rdx        # 4022e2 <array.3090+0x1e2>
  401923:	48 8d 35 13 06 00 00 	lea    0x613(%rip),%rsi        # 401f3d <_IO_stdin_used+0x1d>
  40192a:	48 8b 3d 6f 1e 20 00 	mov    0x201e6f(%rip),%rdi        # 6037a0 <stdout@@GLIBC_2.2.5>
  401931:	b8 00 00 00 00       	mov    $0x0,%eax
  401936:	e8 55 f3 ff ff       	callq  400c90 <fprintf@plt>
  40193b:	44 89 ff             	mov    %r15d,%edi
  40193e:	e8 ed f2 ff ff       	callq  400c30 <close@plt>
  401943:	bf 01 00 00 00       	mov    $0x1,%edi
  401948:	e8 e3 f3 ff ff       	callq  400d30 <exit@plt>
  40194d:	48 8d 15 02 0a 00 00 	lea    0xa02(%rip),%rdx        # 402356 <array.3090+0x256>
  401954:	48 8d 35 e2 05 00 00 	lea    0x5e2(%rip),%rsi        # 401f3d <_IO_stdin_used+0x1d>
  40195b:	48 8b 3d 3e 1e 20 00 	mov    0x201e3e(%rip),%rdi        # 6037a0 <stdout@@GLIBC_2.2.5>
  401962:	b8 00 00 00 00       	mov    $0x0,%eax
  401967:	e8 24 f3 ff ff       	callq  400c90 <fprintf@plt>
  40196c:	45 85 ff             	test   %r15d,%r15d
  40196f:	74 08                	je     401979 <send_msg+0x2ba>
  401971:	44 89 ff             	mov    %r15d,%edi
  401974:	e8 b7 f2 ff ff       	callq  400c30 <close@plt>
  401979:	bf 01 00 00 00       	mov    $0x1,%edi
  40197e:	e8 ad f3 ff ff       	callq  400d30 <exit@plt>
  401983:	48 8d 15 65 09 00 00 	lea    0x965(%rip),%rdx        # 4022ef <array.3090+0x1ef>
  40198a:	48 8d 35 ac 05 00 00 	lea    0x5ac(%rip),%rsi        # 401f3d <_IO_stdin_used+0x1d>
  401991:	48 8b 3d 08 1e 20 00 	mov    0x201e08(%rip),%rdi        # 6037a0 <stdout@@GLIBC_2.2.5>
  401998:	b8 00 00 00 00       	mov    $0x0,%eax
  40199d:	e8 ee f2 ff ff       	callq  400c90 <fprintf@plt>
  4019a2:	45 85 ff             	test   %r15d,%r15d
  4019a5:	74 08                	je     4019af <send_msg+0x2f0>
  4019a7:	44 89 ff             	mov    %r15d,%edi
  4019aa:	e8 81 f2 ff ff       	callq  400c30 <close@plt>
  4019af:	bf 01 00 00 00       	mov    $0x1,%edi
  4019b4:	e8 77 f3 ff ff       	callq  400d30 <exit@plt>
  4019b9:	c7 04 24 6e 6f 62 6f 	movl   $0x6f626f6e,(%rsp)
  4019c0:	66 c7 44 24 04 64 79 	movw   $0x7964,0x4(%rsp)
  4019c7:	c6 44 24 06 00       	movb   $0x0,0x6(%rsp)
  4019cc:	e9 0d fe ff ff       	jmpq   4017de <send_msg+0x11f>
  4019d1:	48 8d 15 5d 09 00 00 	lea    0x95d(%rip),%rdx        # 402335 <array.3090+0x235>
  4019d8:	48 8d 35 5e 05 00 00 	lea    0x55e(%rip),%rsi        # 401f3d <_IO_stdin_used+0x1d>
  4019df:	48 8b 3d ba 1d 20 00 	mov    0x201dba(%rip),%rdi        # 6037a0 <stdout@@GLIBC_2.2.5>
  4019e6:	e8 a5 f2 ff ff       	callq  400c90 <fprintf@plt>
  4019eb:	45 85 ff             	test   %r15d,%r15d
  4019ee:	74 08                	je     4019f8 <send_msg+0x339>
  4019f0:	44 89 ff             	mov    %r15d,%edi
  4019f3:	e8 38 f2 ff ff       	callq  400c30 <close@plt>
  4019f8:	bf 01 00 00 00       	mov    $0x1,%edi
  4019fd:	e8 2e f3 ff ff       	callq  400d30 <exit@plt>

0000000000401a02 <send_msg_2>:
  401a02:	41 57                	push   %r15
  401a04:	41 56                	push   %r14
  401a06:	41 55                	push   %r13
  401a08:	41 54                	push   %r12
  401a0a:	55                   	push   %rbp
  401a0b:	53                   	push   %rbx
  401a0c:	48 83 ec 68          	sub    $0x68,%rsp
  401a10:	89 fb                	mov    %edi,%ebx
  401a12:	bf 00 00 00 00       	mov    $0x0,%edi
  401a17:	e8 04 f2 ff ff       	callq  400c20 <dup@plt>
  401a1c:	89 44 24 0c          	mov    %eax,0xc(%rsp)
  401a20:	83 f8 ff             	cmp    $0xffffffff,%eax
  401a23:	0f 84 a6 01 00 00    	je     401bcf <send_msg_2+0x1cd>
  401a29:	bf 00 00 00 00       	mov    $0x0,%edi
  401a2e:	e8 fd f1 ff ff       	callq  400c30 <close@plt>
  401a33:	83 f8 ff             	cmp    $0xffffffff,%eax
  401a36:	0f 84 a9 01 00 00    	je     401be5 <send_msg_2+0x1e3>
  401a3c:	e8 1f f2 ff ff       	callq  400c60 <tmpfile@plt>
  401a41:	48 89 c5             	mov    %rax,%rbp
  401a44:	48 85 c0             	test   %rax,%rax
  401a47:	0f 84 ae 01 00 00    	je     401bfb <send_msg_2+0x1f9>
  401a4d:	48 89 c1             	mov    %rax,%rcx
  401a50:	ba 1b 00 00 00       	mov    $0x1b,%edx
  401a55:	be 01 00 00 00       	mov    $0x1,%esi
  401a5a:	48 8d 3d 23 09 00 00 	lea    0x923(%rip),%rdi        # 402384 <array.3090+0x284>
  401a61:	e8 ea f2 ff ff       	callq  400d50 <fwrite@plt>
  401a66:	48 89 ee             	mov    %rbp,%rsi
  401a69:	bf 0a 00 00 00       	mov    $0xa,%edi
  401a6e:	e8 cd f1 ff ff       	callq  400c40 <fputc@plt>
  401a73:	bf 00 00 00 00       	mov    $0x0,%edi
  401a78:	e8 73 f2 ff ff       	callq  400cf0 <cuserid@plt>
  401a7d:	48 85 c0             	test   %rax,%rax
  401a80:	0f 84 8b 01 00 00    	je     401c11 <send_msg_2+0x20f>
  401a86:	48 8d 7c 24 10       	lea    0x10(%rsp),%rdi
  401a8b:	48 89 c6             	mov    %rax,%rsi
  401a8e:	e8 1d f1 ff ff       	callq  400bb0 <strcpy@plt>
  401a93:	85 db                	test   %ebx,%ebx
  401a95:	48 8d 05 3d 08 00 00 	lea    0x83d(%rip),%rax        # 4022d9 <array.3090+0x1d9>
  401a9c:	4c 8d 0d 2e 08 00 00 	lea    0x82e(%rip),%r9        # 4022d1 <array.3090+0x1d1>
  401aa3:	4c 0f 44 c8          	cmove  %rax,%r9
  401aa7:	48 83 ec 08          	sub    $0x8,%rsp
  401aab:	8b 05 0b 1d 20 00    	mov    0x201d0b(%rip),%eax        # 6037bc <num_input_strings>
  401ab1:	50                   	push   %rax
  401ab2:	4c 8d 44 24 20       	lea    0x20(%rsp),%r8
  401ab7:	8b 0d a3 1b 20 00    	mov    0x201ba3(%rip),%ecx        # 603660 <bomb_id>
  401abd:	48 8d 15 9c 17 20 00 	lea    0x20179c(%rip),%rdx        # 603260 <lab_id>
  401ac4:	48 8d 35 32 08 00 00 	lea    0x832(%rip),%rsi        # 4022fd <array.3090+0x1fd>
  401acb:	48 89 ef             	mov    %rbp,%rdi
  401ace:	b8 00 00 00 00       	mov    $0x0,%eax
  401ad3:	e8 b8 f1 ff ff       	callq  400c90 <fprintf@plt>
  401ad8:	48 83 c4 10          	add    $0x10,%rsp
  401adc:	83 3d d9 1c 20 00 00 	cmpl   $0x0,0x201cd9(%rip)        # 6037bc <num_input_strings>
  401ae3:	7e 60                	jle    401b45 <send_msg_2+0x143>
  401ae5:	bb 00 00 00 00       	mov    $0x0,%ebx
  401aea:	4c 8d 3d ef 1c 20 00 	lea    0x201cef(%rip),%r15        # 6037e0 <input_strings>
  401af1:	4c 8d 74 24 10       	lea    0x10(%rsp),%r14
  401af6:	4c 8d 2d 63 17 20 00 	lea    0x201763(%rip),%r13        # 603260 <lab_id>
  401afd:	4c 8d 25 15 08 00 00 	lea    0x815(%rip),%r12        # 402319 <array.3090+0x219>
  401b04:	48 63 c3             	movslq %ebx,%rax
  401b07:	48 8d 04 80          	lea    (%rax,%rax,4),%rax
  401b0b:	48 c1 e0 04          	shl    $0x4,%rax
  401b0f:	4c 01 f8             	add    %r15,%rax
  401b12:	83 c3 01             	add    $0x1,%ebx
  401b15:	48 83 ec 08          	sub    $0x8,%rsp
  401b19:	50                   	push   %rax
  401b1a:	41 89 d9             	mov    %ebx,%r9d
  401b1d:	4d 89 f0             	mov    %r14,%r8
  401b20:	8b 0d 3a 1b 20 00    	mov    0x201b3a(%rip),%ecx        # 603660 <bomb_id>
  401b26:	4c 89 ea             	mov    %r13,%rdx
  401b29:	4c 89 e6             	mov    %r12,%rsi
  401b2c:	48 89 ef             	mov    %rbp,%rdi
  401b2f:	b8 00 00 00 00       	mov    $0x0,%eax
  401b34:	e8 57 f1 ff ff       	callq  400c90 <fprintf@plt>
  401b39:	48 83 c4 10          	add    $0x10,%rsp
  401b3d:	39 1d 79 1c 20 00    	cmp    %ebx,0x201c79(%rip)        # 6037bc <num_input_strings>
  401b43:	7f bf                	jg     401b04 <send_msg_2+0x102>
  401b45:	48 89 ef             	mov    %rbp,%rdi
  401b48:	e8 c3 f0 ff ff       	callq  400c10 <rewind@plt>
  401b4d:	4c 8d 05 4c 08 00 00 	lea    0x84c(%rip),%r8        # 4023a0 <array.3090+0x2a0>
  401b54:	48 8d 0d 4f 08 00 00 	lea    0x84f(%rip),%rcx        # 4023aa <array.3090+0x2aa>
  401b5b:	48 8d 15 50 08 00 00 	lea    0x850(%rip),%rdx        # 4023b2 <array.3090+0x2b2>
  401b62:	48 8d 35 60 08 00 00 	lea    0x860(%rip),%rsi        # 4023c9 <array.3090+0x2c9>
  401b69:	48 8d 3d b0 22 20 00 	lea    0x2022b0(%rip),%rdi        # 603e20 <scratch>
  401b70:	b8 00 00 00 00       	mov    $0x0,%eax
  401b75:	e8 a6 f1 ff ff       	callq  400d20 <sprintf@plt>
  401b7a:	48 8d 3d 9f 22 20 00 	lea    0x20229f(%rip),%rdi        # 603e20 <scratch>
  401b81:	e8 6a f0 ff ff       	callq  400bf0 <system@plt>
  401b86:	85 c0                	test   %eax,%eax
  401b88:	0f 85 9c 00 00 00    	jne    401c2a <send_msg_2+0x228>
  401b8e:	48 89 ef             	mov    %rbp,%rdi
  401b91:	e8 4a f0 ff ff       	callq  400be0 <fclose@plt>
  401b96:	85 c0                	test   %eax,%eax
  401b98:	0f 85 a2 00 00 00    	jne    401c40 <send_msg_2+0x23e>
  401b9e:	8b 7c 24 0c          	mov    0xc(%rsp),%edi
  401ba2:	e8 79 f0 ff ff       	callq  400c20 <dup@plt>
  401ba7:	85 c0                	test   %eax,%eax
  401ba9:	0f 85 a7 00 00 00    	jne    401c56 <send_msg_2+0x254>
  401baf:	8b 7c 24 0c          	mov    0xc(%rsp),%edi
  401bb3:	e8 78 f0 ff ff       	callq  400c30 <close@plt>
  401bb8:	85 c0                	test   %eax,%eax
  401bba:	0f 85 ac 00 00 00    	jne    401c6c <send_msg_2+0x26a>
  401bc0:	48 83 c4 68          	add    $0x68,%rsp
  401bc4:	5b                   	pop    %rbx
  401bc5:	5d                   	pop    %rbp
  401bc6:	41 5c                	pop    %r12
  401bc8:	41 5d                	pop    %r13
  401bca:	41 5e                	pop    %r14
  401bcc:	41 5f                	pop    %r15
  401bce:	c3                   	retq   
  401bcf:	48 8d 3d 72 07 00 00 	lea    0x772(%rip),%rdi        # 402348 <array.3090+0x248>
  401bd6:	e8 e5 ef ff ff       	callq  400bc0 <puts@plt>
  401bdb:	bf 08 00 00 00       	mov    $0x8,%edi
  401be0:	e8 4b f1 ff ff       	callq  400d30 <exit@plt>
  401be5:	48 8d 3d 70 07 00 00 	lea    0x770(%rip),%rdi        # 40235c <array.3090+0x25c>
  401bec:	e8 cf ef ff ff       	callq  400bc0 <puts@plt>
  401bf1:	bf 08 00 00 00       	mov    $0x8,%edi
  401bf6:	e8 35 f1 ff ff       	callq  400d30 <exit@plt>
  401bfb:	48 8d 3d 6d 07 00 00 	lea    0x76d(%rip),%rdi        # 40236f <array.3090+0x26f>
  401c02:	e8 b9 ef ff ff       	callq  400bc0 <puts@plt>
  401c07:	bf 08 00 00 00       	mov    $0x8,%edi
  401c0c:	e8 1f f1 ff ff       	callq  400d30 <exit@plt>
  401c11:	c7 44 24 10 6e 6f 62 	movl   $0x6f626f6e,0x10(%rsp)
  401c18:	6f 
  401c19:	66 c7 44 24 14 64 79 	movw   $0x7964,0x14(%rsp)
  401c20:	c6 44 24 16 00       	movb   $0x0,0x16(%rsp)
  401c25:	e9 69 fe ff ff       	jmpq   401a93 <send_msg_2+0x91>
  401c2a:	48 8d 3d a1 07 00 00 	lea    0x7a1(%rip),%rdi        # 4023d2 <array.3090+0x2d2>
  401c31:	e8 8a ef ff ff       	callq  400bc0 <puts@plt>
  401c36:	bf 08 00 00 00       	mov    $0x8,%edi
  401c3b:	e8 f0 f0 ff ff       	callq  400d30 <exit@plt>
  401c40:	48 8d 3d a5 07 00 00 	lea    0x7a5(%rip),%rdi        # 4023ec <array.3090+0x2ec>
  401c47:	e8 74 ef ff ff       	callq  400bc0 <puts@plt>
  401c4c:	bf 08 00 00 00       	mov    $0x8,%edi
  401c51:	e8 da f0 ff ff       	callq  400d30 <exit@plt>
  401c56:	48 8d 3d a8 07 00 00 	lea    0x7a8(%rip),%rdi        # 402405 <array.3090+0x305>
  401c5d:	e8 5e ef ff ff       	callq  400bc0 <puts@plt>
  401c62:	bf 08 00 00 00       	mov    $0x8,%edi
  401c67:	e8 c4 f0 ff ff       	callq  400d30 <exit@plt>
  401c6c:	48 8d 3d ad 07 00 00 	lea    0x7ad(%rip),%rdi        # 402420 <array.3090+0x320>
  401c73:	e8 48 ef ff ff       	callq  400bc0 <puts@plt>
  401c78:	bf 08 00 00 00       	mov    $0x8,%edi
  401c7d:	e8 ae f0 ff ff       	callq  400d30 <exit@plt>

0000000000401c82 <explode_bomb>:
  401c82:	48 83 ec 08          	sub    $0x8,%rsp
  401c86:	48 8d 3d aa 07 00 00 	lea    0x7aa(%rip),%rdi        # 402437 <array.3090+0x337>
  401c8d:	e8 2e ef ff ff       	callq  400bc0 <puts@plt>
  401c92:	48 8d 3d a7 07 00 00 	lea    0x7a7(%rip),%rdi        # 402440 <array.3090+0x340>
  401c99:	e8 22 ef ff ff       	callq  400bc0 <puts@plt>
  401c9e:	bf 00 00 00 00       	mov    $0x0,%edi
  401ca3:	e8 17 fa ff ff       	callq  4016bf <send_msg>
  401ca8:	48 8d 3d c9 04 00 00 	lea    0x4c9(%rip),%rdi        # 402178 <array.3090+0x78>
  401caf:	e8 0c ef ff ff       	callq  400bc0 <puts@plt>
  401cb4:	bf 08 00 00 00       	mov    $0x8,%edi
  401cb9:	e8 72 f0 ff ff       	callq  400d30 <exit@plt>

0000000000401cbe <read_six_numbers>:
  401cbe:	48 83 ec 08          	sub    $0x8,%rsp
  401cc2:	48 89 f2             	mov    %rsi,%rdx
  401cc5:	48 8d 4e 04          	lea    0x4(%rsi),%rcx
  401cc9:	48 8d 46 14          	lea    0x14(%rsi),%rax
  401ccd:	50                   	push   %rax
  401cce:	48 8d 46 10          	lea    0x10(%rsi),%rax
  401cd2:	50                   	push   %rax
  401cd3:	4c 8d 4e 0c          	lea    0xc(%rsi),%r9
  401cd7:	4c 8d 46 08          	lea    0x8(%rsi),%r8
  401cdb:	48 8d 35 75 07 00 00 	lea    0x775(%rip),%rsi        # 402457 <array.3090+0x357>
  401ce2:	b8 00 00 00 00       	mov    $0x0,%eax
  401ce7:	e8 e4 ef ff ff       	callq  400cd0 <__isoc99_sscanf@plt>
  401cec:	48 83 c4 10          	add    $0x10,%rsp
  401cf0:	83 f8 05             	cmp    $0x5,%eax
  401cf3:	7e 05                	jle    401cfa <read_six_numbers+0x3c>
  401cf5:	48 83 c4 08          	add    $0x8,%rsp
  401cf9:	c3                   	retq   
  401cfa:	e8 83 ff ff ff       	callq  401c82 <explode_bomb>

0000000000401cff <read_line>:
  401cff:	48 83 ec 08          	sub    $0x8,%rsp
  401d03:	b8 00 00 00 00       	mov    $0x0,%eax
  401d08:	e8 04 f9 ff ff       	callq  401611 <skip>
  401d0d:	48 85 c0             	test   %rax,%rax
  401d10:	74 6f                	je     401d81 <read_line+0x82>
  401d12:	8b 35 a4 1a 20 00    	mov    0x201aa4(%rip),%esi        # 6037bc <num_input_strings>
  401d18:	48 63 c6             	movslq %esi,%rax
  401d1b:	48 8d 14 80          	lea    (%rax,%rax,4),%rdx
  401d1f:	48 c1 e2 04          	shl    $0x4,%rdx
  401d23:	48 8d 05 b6 1a 20 00 	lea    0x201ab6(%rip),%rax        # 6037e0 <input_strings>
  401d2a:	48 01 c2             	add    %rax,%rdx
  401d2d:	b8 00 00 00 00       	mov    $0x0,%eax
  401d32:	48 c7 c1 ff ff ff ff 	mov    $0xffffffffffffffff,%rcx
  401d39:	48 89 d7             	mov    %rdx,%rdi
  401d3c:	f2 ae                	repnz scas %es:(%rdi),%al
  401d3e:	48 f7 d1             	not    %rcx
  401d41:	48 83 e9 01          	sub    $0x1,%rcx
  401d45:	83 f9 4f             	cmp    $0x4f,%ecx
  401d48:	0f 84 a1 00 00 00    	je     401def <read_line+0xf0>
  401d4e:	83 e9 01             	sub    $0x1,%ecx
  401d51:	48 63 c9             	movslq %ecx,%rcx
  401d54:	48 63 c6             	movslq %esi,%rax
  401d57:	48 8d 04 80          	lea    (%rax,%rax,4),%rax
  401d5b:	48 c1 e0 04          	shl    $0x4,%rax
  401d5f:	48 89 c7             	mov    %rax,%rdi
  401d62:	48 8d 05 77 1a 20 00 	lea    0x201a77(%rip),%rax        # 6037e0 <input_strings>
  401d69:	48 01 f8             	add    %rdi,%rax
  401d6c:	c6 04 08 00          	movb   $0x0,(%rax,%rcx,1)
  401d70:	83 c6 01             	add    $0x1,%esi
  401d73:	89 35 43 1a 20 00    	mov    %esi,0x201a43(%rip)        # 6037bc <num_input_strings>
  401d79:	48 89 d0             	mov    %rdx,%rax
  401d7c:	48 83 c4 08          	add    $0x8,%rsp
  401d80:	c3                   	retq   
  401d81:	48 8b 05 28 1a 20 00 	mov    0x201a28(%rip),%rax        # 6037b0 <stdin@@GLIBC_2.2.5>
  401d88:	48 39 05 31 1a 20 00 	cmp    %rax,0x201a31(%rip)        # 6037c0 <infile>
  401d8f:	74 43                	je     401dd4 <read_line+0xd5>
  401d91:	48 8d 3d ef 06 00 00 	lea    0x6ef(%rip),%rdi        # 402487 <array.3090+0x387>
  401d98:	e8 f3 ed ff ff       	callq  400b90 <getenv@plt>
  401d9d:	48 85 c0             	test   %rax,%rax
  401da0:	75 43                	jne    401de5 <read_line+0xe6>
  401da2:	48 8b 05 07 1a 20 00 	mov    0x201a07(%rip),%rax        # 6037b0 <stdin@@GLIBC_2.2.5>
  401da9:	48 89 05 10 1a 20 00 	mov    %rax,0x201a10(%rip)        # 6037c0 <infile>
  401db0:	b8 00 00 00 00       	mov    $0x0,%eax
  401db5:	e8 57 f8 ff ff       	callq  401611 <skip>
  401dba:	48 85 c0             	test   %rax,%rax
  401dbd:	0f 85 4f ff ff ff    	jne    401d12 <read_line+0x13>
  401dc3:	48 8d 3d 9f 06 00 00 	lea    0x69f(%rip),%rdi        # 402469 <array.3090+0x369>
  401dca:	e8 f1 ed ff ff       	callq  400bc0 <puts@plt>
  401dcf:	e8 ae fe ff ff       	callq  401c82 <explode_bomb>
  401dd4:	48 8d 3d 8e 06 00 00 	lea    0x68e(%rip),%rdi        # 402469 <array.3090+0x369>
  401ddb:	e8 e0 ed ff ff       	callq  400bc0 <puts@plt>
  401de0:	e8 9d fe ff ff       	callq  401c82 <explode_bomb>
  401de5:	bf 00 00 00 00       	mov    $0x0,%edi
  401dea:	e8 41 ef ff ff       	callq  400d30 <exit@plt>
  401def:	48 8d 3d 9c 06 00 00 	lea    0x69c(%rip),%rdi        # 402492 <array.3090+0x392>
  401df6:	e8 c5 ed ff ff       	callq  400bc0 <puts@plt>
  401dfb:	e8 82 fe ff ff       	callq  401c82 <explode_bomb>

0000000000401e00 <phase_defused>:
  401e00:	48 83 ec 68          	sub    $0x68,%rsp
  401e04:	bf 01 00 00 00       	mov    $0x1,%edi
  401e09:	e8 b1 f8 ff ff       	callq  4016bf <send_msg>
  401e0e:	83 3d a7 19 20 00 06 	cmpl   $0x6,0x2019a7(%rip)        # 6037bc <num_input_strings>
  401e15:	74 05                	je     401e1c <phase_defused+0x1c>
  401e17:	48 83 c4 68          	add    $0x68,%rsp
  401e1b:	c3                   	retq   
  401e1c:	48 8d 4c 24 10       	lea    0x10(%rsp),%rcx
  401e21:	48 8d 54 24 0c       	lea    0xc(%rsp),%rdx
  401e26:	48 8d 35 80 06 00 00 	lea    0x680(%rip),%rsi        # 4024ad <array.3090+0x3ad>
  401e2d:	48 8d 3d 9c 1a 20 00 	lea    0x201a9c(%rip),%rdi        # 6038d0 <input_strings+0xf0>
  401e34:	b8 00 00 00 00       	mov    $0x0,%eax
  401e39:	e8 92 ee ff ff       	callq  400cd0 <__isoc99_sscanf@plt>
  401e3e:	83 f8 02             	cmp    $0x2,%eax
  401e41:	74 1a                	je     401e5d <phase_defused+0x5d>
  401e43:	48 8d 3d b6 03 00 00 	lea    0x3b6(%rip),%rdi        # 402200 <array.3090+0x100>
  401e4a:	e8 71 ed ff ff       	callq  400bc0 <puts@plt>
  401e4f:	48 8d 3d da 03 00 00 	lea    0x3da(%rip),%rdi        # 402230 <array.3090+0x130>
  401e56:	e8 65 ed ff ff       	callq  400bc0 <puts@plt>
  401e5b:	eb ba                	jmp    401e17 <phase_defused+0x17>
  401e5d:	48 8d 7c 24 10       	lea    0x10(%rsp),%rdi
  401e62:	48 8d 35 4a 06 00 00 	lea    0x64a(%rip),%rsi        # 4024b3 <array.3090+0x3b3>
  401e69:	e8 04 f6 ff ff       	callq  401472 <strings_not_equal>
  401e6e:	85 c0                	test   %eax,%eax
  401e70:	75 d1                	jne    401e43 <phase_defused+0x43>
  401e72:	48 8d 3d 27 03 00 00 	lea    0x327(%rip),%rdi        # 4021a0 <array.3090+0xa0>
  401e79:	e8 42 ed ff ff       	callq  400bc0 <puts@plt>
  401e7e:	48 8d 3d 43 03 00 00 	lea    0x343(%rip),%rdi        # 4021c8 <array.3090+0xc8>
  401e85:	e8 36 ed ff ff       	callq  400bc0 <puts@plt>
  401e8a:	b8 00 00 00 00       	mov    $0x0,%eax
  401e8f:	e8 ef f4 ff ff       	callq  401383 <secret_phase>
  401e94:	eb ad                	jmp    401e43 <phase_defused+0x43>
  401e96:	66 2e 0f 1f 84 00 00 	nopw   %cs:0x0(%rax,%rax,1)
  401e9d:	00 00 00 

0000000000401ea0 <__libc_csu_init>:
  401ea0:	41 57                	push   %r15
  401ea2:	41 56                	push   %r14
  401ea4:	41 89 ff             	mov    %edi,%r15d
  401ea7:	41 55                	push   %r13
  401ea9:	41 54                	push   %r12
  401eab:	4c 8d 25 56 0f 20 00 	lea    0x200f56(%rip),%r12        # 602e08 <__frame_dummy_init_array_entry>
  401eb2:	55                   	push   %rbp
  401eb3:	48 8d 2d 56 0f 20 00 	lea    0x200f56(%rip),%rbp        # 602e10 <__init_array_end>
  401eba:	53                   	push   %rbx
  401ebb:	49 89 f6             	mov    %rsi,%r14
  401ebe:	49 89 d5             	mov    %rdx,%r13
  401ec1:	4c 29 e5             	sub    %r12,%rbp
  401ec4:	48 83 ec 08          	sub    $0x8,%rsp
  401ec8:	48 c1 fd 03          	sar    $0x3,%rbp
  401ecc:	e8 97 ec ff ff       	callq  400b68 <_init>
  401ed1:	48 85 ed             	test   %rbp,%rbp
  401ed4:	74 20                	je     401ef6 <__libc_csu_init+0x56>
  401ed6:	31 db                	xor    %ebx,%ebx
  401ed8:	0f 1f 84 00 00 00 00 	nopl   0x0(%rax,%rax,1)
  401edf:	00 
  401ee0:	4c 89 ea             	mov    %r13,%rdx
  401ee3:	4c 89 f6             	mov    %r14,%rsi
  401ee6:	44 89 ff             	mov    %r15d,%edi
  401ee9:	41 ff 14 dc          	callq  *(%r12,%rbx,8)
  401eed:	48 83 c3 01          	add    $0x1,%rbx
  401ef1:	48 39 dd             	cmp    %rbx,%rbp
  401ef4:	75 ea                	jne    401ee0 <__libc_csu_init+0x40>
  401ef6:	48 83 c4 08          	add    $0x8,%rsp
  401efa:	5b                   	pop    %rbx
  401efb:	5d                   	pop    %rbp
  401efc:	41 5c                	pop    %r12
  401efe:	41 5d                	pop    %r13
  401f00:	41 5e                	pop    %r14
  401f02:	41 5f                	pop    %r15
  401f04:	c3                   	retq   
  401f05:	90                   	nop
  401f06:	66 2e 0f 1f 84 00 00 	nopw   %cs:0x0(%rax,%rax,1)
  401f0d:	00 00 00 

0000000000401f10 <__libc_csu_fini>:
  401f10:	f3 c3                	repz retq 

Disassembly of section .fini:

0000000000401f14 <_fini>:
  401f14:	48 83 ec 08          	sub    $0x8,%rsp
  401f18:	48 83 c4 08          	add    $0x8,%rsp
  401f1c:	c3                   	retq   
